; ModuleID = '23/28.c'
source_filename = "23/28.c"
target datalayout = "e-m:e-p270:32:32-p271:32:32-p272:64:64-i64:64-f80:128-n8:16:32:64-S128"
target triple = "x86_64-pc-linux-gnu"

@.str = private unnamed_addr constant [3 x i8] c"%c\00", align 1
@.str.1 = private unnamed_addr constant [2 x i8] c" \00", align 1

; Function Attrs: noinline nounwind uwtable
define dso_local void @main() #0 {
  %1 = alloca i32, align 4
  %2 = alloca i32, align 4
  %3 = alloca [100 x i8], align 16
  %4 = alloca i8*, align 8
  %5 = alloca i8*, align 8
  %6 = alloca i8*, align 8
  %7 = getelementptr inbounds [100 x i8], [100 x i8]* %3, i64 0, i64 0
  %8 = call i32 (i8*, ...) bitcast (i32 (...)* @gets to i32 (i8*, ...)*)(i8* %7)
  %9 = getelementptr inbounds [100 x i8], [100 x i8]* %3, i64 0, i64 0
  %10 = call i64 @strlen(i8* %9) #3
  %11 = trunc i64 %10 to i32
  store i32 %11, i32* %1, align 4
  %12 = load i32, i32* %1, align 4
  %13 = sub nsw i32 %12, 1
  %14 = sext i32 %13 to i64
  %15 = getelementptr inbounds [100 x i8], [100 x i8]* %3, i64 0, i64 %14
  store i8* %15, i8** %4, align 8
  %16 = load i32, i32* %1, align 4
  %17 = sub nsw i32 %16, 1
  %18 = sext i32 %17 to i64
  %19 = getelementptr inbounds [100 x i8], [100 x i8]* %3, i64 0, i64 %18
  store i8* %19, i8** %5, align 8
  %20 = load i8*, i8** %4, align 8
  store i8* %20, i8** %6, align 8
  %21 = load i32, i32* %1, align 4
  %22 = sub nsw i32 %21, 1
  store i32 %22, i32* %2, align 4
  br label %23

23:                                               ; preds = %73, %0
  %24 = load i32, i32* %2, align 4
  %25 = icmp sge i32 %24, 0
  br i1 %25, label %26, label %76

26:                                               ; preds = %23
  %27 = load i32, i32* %2, align 4
  %28 = sext i32 %27 to i64
  %29 = getelementptr inbounds [100 x i8], [100 x i8]* %3, i64 0, i64 %28
  store i8* %29, i8** %4, align 8
  %30 = load i8*, i8** %4, align 8
  %31 = load i8, i8* %30, align 1
  %32 = sext i8 %31 to i32
  %33 = icmp eq i32 %32, 32
  br i1 %33, label %34, label %53

34:                                               ; preds = %26
  %35 = load i8*, i8** %4, align 8
  %36 = getelementptr inbounds i8, i8* %35, i64 1
  store i8* %36, i8** %6, align 8
  br label %37

37:                                               ; preds = %46, %34
  %38 = load i8*, i8** %6, align 8
  %39 = load i8*, i8** %5, align 8
  %40 = icmp ule i8* %38, %39
  br i1 %40, label %41, label %49

41:                                               ; preds = %37
  %42 = load i8*, i8** %6, align 8
  %43 = load i8, i8* %42, align 1
  %44 = sext i8 %43 to i32
  %45 = call i32 (i8*, ...) @printf(i8* getelementptr inbounds ([3 x i8], [3 x i8]* @.str, i64 0, i64 0), i32 %44)
  br label %46

46:                                               ; preds = %41
  %47 = load i8*, i8** %6, align 8
  %48 = getelementptr inbounds i8, i8* %47, i32 1
  store i8* %48, i8** %6, align 8
  br label %37

49:                                               ; preds = %37
  %50 = call i32 (i8*, ...) @printf(i8* getelementptr inbounds ([2 x i8], [2 x i8]* @.str.1, i64 0, i64 0))
  %51 = load i8*, i8** %4, align 8
  %52 = getelementptr inbounds i8, i8* %51, i64 -1
  store i8* %52, i8** %5, align 8
  br label %53

53:                                               ; preds = %49, %26
  %54 = load i8*, i8** %4, align 8
  %55 = getelementptr inbounds [100 x i8], [100 x i8]* %3, i64 0, i64 0
  %56 = icmp eq i8* %54, %55
  br i1 %56, label %57, label %72

57:                                               ; preds = %53
  %58 = load i8*, i8** %4, align 8
  store i8* %58, i8** %6, align 8
  br label %59

59:                                               ; preds = %68, %57
  %60 = load i8*, i8** %6, align 8
  %61 = load i8*, i8** %5, align 8
  %62 = icmp ule i8* %60, %61
  br i1 %62, label %63, label %71

63:                                               ; preds = %59
  %64 = load i8*, i8** %6, align 8
  %65 = load i8, i8* %64, align 1
  %66 = sext i8 %65 to i32
  %67 = call i32 (i8*, ...) @printf(i8* getelementptr inbounds ([3 x i8], [3 x i8]* @.str, i64 0, i64 0), i32 %66)
  br label %68

68:                                               ; preds = %63
  %69 = load i8*, i8** %6, align 8
  %70 = getelementptr inbounds i8, i8* %69, i32 1
  store i8* %70, i8** %6, align 8
  br label %59

71:                                               ; preds = %59
  br label %72

72:                                               ; preds = %71, %53
  br label %73

73:                                               ; preds = %72
  %74 = load i32, i32* %2, align 4
  %75 = add nsw i32 %74, -1
  store i32 %75, i32* %2, align 4
  br label %23

76:                                               ; preds = %23
  ret void
}

declare dso_local i32 @gets(...) #1

; Function Attrs: nounwind readonly
declare dso_local i64 @strlen(i8*) #2

declare dso_local i32 @printf(i8*, ...) #1


!llvm.module.flags = !{!0}
!llvm.ident = !{!1}

!0 = !{i32 1, !"wchar_size", i32 4}
!1 = !{!"clang version 10.0.0-4ubuntu1 "}
