; ModuleID = 'source-C-CXX/22/28.c'
source_filename = "source-C-CXX/22/28.c"
target datalayout = "e-m:e-p270:32:32-p271:32:32-p272:64:64-i64:64-f80:128-n8:16:32:64-S128"
target triple = "x86_64-pc-linux-gnu"

; Function Attrs: nounwind sspstrong uwtable
define dso_local void @main() local_unnamed_addr #0 {
  %1 = alloca [100 x i8], align 16
  %2 = getelementptr inbounds [100 x i8], [100 x i8]* %1, i64 0, i64 0
  call void @llvm.lifetime.start.p0i8(i64 100, i8* nonnull %2) #5
  %3 = call i32 (i8*, ...) bitcast (i32 (...)* @gets to i32 (i8*, ...)*)(i8* nonnull %2) #5
  %4 = call i64 @strlen(i8* noundef nonnull %2) #6
  %5 = trunc i64 %4 to i32
  %6 = add i32 %5, -1
  %7 = icmp sgt i32 %5, 0
  br i1 %7, label %8, label %46

8:                                                ; preds = %0
  %9 = zext i32 %6 to i64
  %10 = getelementptr inbounds [100 x i8], [100 x i8]* %1, i64 0, i64 %9
  %11 = zext i32 %6 to i64
  br label %12

12:                                               ; preds = %8, %42
  %13 = phi i64 [ %11, %8 ], [ %45, %42 ]
  %14 = phi i8* [ %10, %8 ], [ %43, %42 ]
  %15 = getelementptr inbounds [100 x i8], [100 x i8]* %1, i64 0, i64 %13
  %16 = load i8, i8* %15, align 1, !tbaa !5
  %17 = icmp eq i8 %16, 32
  br i1 %17, label %18, label %31

18:                                               ; preds = %12
  %19 = getelementptr inbounds i8, i8* %15, i64 1
  %20 = icmp ugt i8* %19, %14
  br i1 %20, label %28, label %21

21:                                               ; preds = %18, %21
  %22 = phi i8* [ %26, %21 ], [ %19, %18 ]
  %23 = load i8, i8* %22, align 1, !tbaa !5
  %24 = sext i8 %23 to i32
  %25 = call i32 @putchar(i32 %24)
  %26 = getelementptr inbounds i8, i8* %22, i64 1
  %27 = icmp ugt i8* %26, %14
  br i1 %27, label %28, label %21, !llvm.loop !8

28:                                               ; preds = %21, %18
  %29 = call i32 @putchar(i32 32)
  %30 = getelementptr inbounds i8, i8* %15, i64 -1
  br label %42

31:                                               ; preds = %12
  %32 = icmp ne i64 %13, 0
  %33 = icmp ugt i8* %15, %14
  %34 = select i1 %32, i1 true, i1 %33
  br i1 %34, label %42, label %35

35:                                               ; preds = %31, %35
  %36 = phi i8* [ %40, %35 ], [ %15, %31 ]
  %37 = load i8, i8* %36, align 1, !tbaa !5
  %38 = sext i8 %37 to i32
  %39 = call i32 @putchar(i32 %38)
  %40 = getelementptr inbounds i8, i8* %36, i64 1
  %41 = icmp ugt i8* %40, %14
  br i1 %41, label %42, label %35, !llvm.loop !10

42:                                               ; preds = %35, %28, %31
  %43 = phi i8* [ %30, %28 ], [ %14, %31 ], [ %14, %35 ]
  %44 = icmp sgt i64 %13, 0
  %45 = add nsw i64 %13, -1
  br i1 %44, label %12, label %46, !llvm.loop !11

46:                                               ; preds = %42, %0
  call void @llvm.lifetime.end.p0i8(i64 100, i8* nonnull %2) #5
  ret void
}

; Function Attrs: argmemonly mustprogress nofree nosync nounwind willreturn
declare void @llvm.lifetime.start.p0i8(i64 immarg, i8* nocapture) #1

declare i32 @gets(...) local_unnamed_addr #2

; Function Attrs: argmemonly mustprogress nofree nounwind readonly willreturn
declare i64 @strlen(i8* nocapture) local_unnamed_addr #3

; Function Attrs: argmemonly mustprogress nofree nosync nounwind willreturn
declare void @llvm.lifetime.end.p0i8(i64 immarg, i8* nocapture) #1

; Function Attrs: nofree nounwind
declare noundef i32 @putchar(i32 noundef) local_unnamed_addr #4


!llvm.module.flags = !{!0, !1, !2, !3}
!llvm.ident = !{!4}

!0 = !{i32 1, !"wchar_size", i32 4}
!1 = !{i32 7, !"PIC Level", i32 2}
!2 = !{i32 7, !"PIE Level", i32 2}
!3 = !{i32 7, !"uwtable", i32 1}
!4 = !{!"clang version 13.0.0"}
!5 = !{!6, !6, i64 0}
!6 = !{!"omnipotent char", !7, i64 0}
!7 = !{!"Simple C/C++ TBAA"}
!8 = distinct !{!8, !9}
!9 = !{!"llvm.loop.mustprogress"}
!10 = distinct !{!10, !9}
!11 = distinct !{!11, !9}
